; Function Attrs: mustprogress uwtable
define void @_ZN6casadi5QrsqpC2ERKNSt7__cxx1112basic_stringIcSt11char_traitsIcESaIcEEERKNS_8FunctionE(ptr noundef nonnull align 8 dereferenceable(2049) %0, ptr noundef nonnull align 8 dereferenceable(32) %1, ptr noundef nonnull align 8 dereferenceable(8) %2) unnamed_addr #3 align 2 personality ptr @__gxx_personality_v0 {
  tail call void @_ZN6casadi6NlpsolC2ERKNSt7__cxx1112basic_stringIcSt11char_traitsIcESaIcEEERKNS_8FunctionE(ptr noundef nonnull align 8 dereferenceable(1928) %0, ptr noundef nonnull align 8 dereferenceable(32) %1, ptr noundef nonnull align 8 dereferenceable(8) %2)
  store ptr getelementptr inbounds ({ [120 x ptr], [3 x ptr] }, ptr @_ZTVN6casadi5QrsqpE, i64 0, i32 0, i64 2), ptr %0, align 8
  %4 = getelementptr inbounds i8, ptr %0, i64 1520
  store ptr getelementptr inbounds ({ [120 x ptr], [3 x ptr] }, ptr @_ZTVN6casadi5QrsqpE, i64 0, i32 1, i64 2), ptr %4, align 8
  %5 = getelementptr inbounds i8, ptr %0, i64 1928
  invoke void @_ZN6casadi8FunctionC1Ev(ptr noundef nonnull align 8 dereferenceable(8) %5)
          to label %6 unwind label %11

6:                                                ; preds = %3
  %7 = getelementptr inbounds i8, ptr %0, i64 2032
  invoke void @_ZN6casadi8SparsityC1Ex(ptr noundef nonnull align 8 dereferenceable(8) %7, i64 noundef 0)
          to label %8 unwind label %13

8:                                                ; preds = %6
  %9 = getelementptr inbounds i8, ptr %0, i64 2040
  invoke void @_ZN6casadi8SparsityC1Ex(ptr noundef nonnull align 8 dereferenceable(8) %9, i64 noundef 0)
          to label %10 unwind label %15

10:                                               ; preds = %8
  ret void

11:                                               ; preds = %3
  %12 = landingpad { ptr, i32 }
          cleanup
  br label %18

13:                                               ; preds = %6
  %14 = landingpad { ptr, i32 }
          cleanup
  br label %17

15:                                               ; preds = %8
  %16 = landingpad { ptr, i32 }
          cleanup
  tail call void @_ZN6casadi12SharedObjectD2Ev(ptr noundef nonnull align 8 dereferenceable(8) %7) #19
  br label %17

17:                                               ; preds = %15, %13
  %.pn = phi { ptr, i32 } [ %16, %15 ], [ %14, %13 ]
  tail call void @_ZN6casadi8FunctionD1Ev(ptr noundef nonnull align 8 dereferenceable(8) %5) #19
  br label %18

18:                                               ; preds = %17, %11
  %.pn.pn = phi { ptr, i32 } [ %.pn, %17 ], [ %12, %11 ]
  tail call void @_ZN6casadi6NlpsolD2Ev(ptr noundef nonnull align 8 dereferenceable(1928) %0) #19
  resume { ptr, i32 } %.pn.pn
}